target datalayout = "e-m:e-p270:32:32-p271:32:32-p272:64:64-i64:64-i128:128-f80:128-n8:16:32:64-S128"
target triple = "x86_64-pc-linux-gnu"

%struct.ogg_codec = type { ptr, i8, ptr, ptr, ptr, ptr, i32, i32, ptr }
%struct.AVFormatContext = type { ptr, ptr, ptr, ptr, ptr, i32, i32, ptr, i32, ptr, i32, ptr, ptr, i64, i64, i64, i32, i32, i32, i64, i64, ptr, i32, i32, ptr, i32, i32, i32, i32, ptr, i64, i32, i32, %struct.AVIOInterruptCB, i32, i32, i32, i32, i64, i32, i32, i32, i32, i32, i32, i32, i32, i32, i32, i32, i32, i64, i32, i32, i32, i32, i32, ptr, ptr, ptr, ptr, i32, ptr, ptr, ptr, ptr, i32, ptr, ptr, i64, ptr, ptr, ptr, i64 }
%struct.AVIOInterruptCB = type { ptr, ptr }
%struct.ogg = type { ptr, i32, i32, i32, i64, ptr }
%struct.ogg_stream = type { ptr, i32, i32, i32, i32, i32, i32, i32, i64, i64, i64, i64, i64, i64, i32, ptr, i32, i32, i32, [255 x i8], i32, i32, i32, i32, i32, i32, i32, i32, ptr, i64, ptr }
%struct.ogg_state = type { i64, i32, ptr, i32, [1 x %struct.ogg_stream] }

; Function Attrs: nounwind uwtable
define internal void @free_stream(ptr noundef %0, i32 noundef %1) #0 {
  %3 = alloca ptr, align 8
  %4 = alloca i32, align 4
  %5 = alloca ptr, align 8
  %6 = alloca ptr, align 8
  store ptr %0, ptr %3, align 8, !tbaa !14
  store i32 %1, ptr %4, align 4, !tbaa !37
  call void @llvm.lifetime.start.p0(i64 8, ptr %5) #10
  %7 = load ptr, ptr %3, align 8, !tbaa !14
  %8 = getelementptr inbounds nuw %struct.AVFormatContext, ptr %7, i32 0, i32 3
  %9 = load ptr, ptr %8, align 8, !tbaa !16
  store ptr %9, ptr %5, align 8, !tbaa !31
  call void @llvm.lifetime.start.p0(i64 8, ptr %6) #10
  %10 = load ptr, ptr %5, align 8, !tbaa !31
  %11 = getelementptr inbounds nuw %struct.ogg, ptr %10, i32 0, i32 0
  %12 = load ptr, ptr %11, align 8, !tbaa !42
  %13 = load i32, ptr %4, align 4, !tbaa !37
  %14 = sext i32 %13 to i64
  %15 = getelementptr inbounds %struct.ogg_stream, ptr %12, i64 %14
  store ptr %15, ptr %6, align 8, !tbaa !43
  %16 = load ptr, ptr %6, align 8, !tbaa !43
  %17 = getelementptr inbounds nuw %struct.ogg_stream, ptr %16, i32 0, i32 0
  call void @av_freep(ptr noundef %17)
  %18 = load ptr, ptr %6, align 8, !tbaa !43
  %19 = getelementptr inbounds nuw %struct.ogg_stream, ptr %18, i32 0, i32 15
  %20 = load ptr, ptr %19, align 8, !tbaa !47
  %21 = icmp ne ptr %20, null
  br i1 %21, label %22, label %37

22:                                               ; preds = %2
  %23 = load ptr, ptr %6, align 8, !tbaa !43
  %24 = getelementptr inbounds nuw %struct.ogg_stream, ptr %23, i32 0, i32 15
  %25 = load ptr, ptr %24, align 8, !tbaa !47
  %26 = getelementptr inbounds nuw %struct.ogg_codec, ptr %25, i32 0, i32 8
  %27 = load ptr, ptr %26, align 8, !tbaa !157
  %28 = icmp ne ptr %27, null
  br i1 %28, label %29, label %37

29:                                               ; preds = %22
  %30 = load ptr, ptr %6, align 8, !tbaa !43
  %31 = getelementptr inbounds nuw %struct.ogg_stream, ptr %30, i32 0, i32 15
  %32 = load ptr, ptr %31, align 8, !tbaa !47
  %33 = getelementptr inbounds nuw %struct.ogg_codec, ptr %32, i32 0, i32 8
  %34 = load ptr, ptr %33, align 8, !tbaa !157
  %35 = load ptr, ptr %3, align 8, !tbaa !14
  %36 = load i32, ptr %4, align 4, !tbaa !37
  call void %34(ptr noundef %35, i32 noundef %36)
  br label %37

37:                                               ; preds = %29, %22, %2
  %38 = load ptr, ptr %6, align 8, !tbaa !43
  %39 = getelementptr inbounds nuw %struct.ogg_stream, ptr %38, i32 0, i32 30
  call void @av_freep(ptr noundef %39)
  %40 = load ptr, ptr %6, align 8, !tbaa !43
  %41 = getelementptr inbounds nuw %struct.ogg_stream, ptr %40, i32 0, i32 28
  call void @av_freep(ptr noundef %41)
  call void @llvm.lifetime.end.p0(i64 8, ptr %6) #10
  call void @llvm.lifetime.end.p0(i64 8, ptr %5) #10
  ret void
}

; Function Attrs: nounwind uwtable
define internal i32 @ogg_restore(ptr noundef %0) #0 {
  %2 = alloca i32, align 4
  %3 = alloca ptr, align 8
  %4 = alloca ptr, align 8
  %5 = alloca ptr, align 8
  %6 = alloca ptr, align 8
  %7 = alloca i32, align 4
  %8 = alloca i32, align 4
  %9 = alloca i32, align 4
  %10 = alloca ptr, align 8
  store ptr %0, ptr %3, align 8, !tbaa !14
  call void @llvm.lifetime.start.p0(i64 8, ptr %4) #10
  %11 = load ptr, ptr %3, align 8, !tbaa !14
  %12 = getelementptr inbounds nuw %struct.AVFormatContext, ptr %11, i32 0, i32 3
  %13 = load ptr, ptr %12, align 8, !tbaa !16
  store ptr %13, ptr %4, align 8, !tbaa !31
  call void @llvm.lifetime.start.p0(i64 8, ptr %5) #10
  %14 = load ptr, ptr %3, align 8, !tbaa !14
  %15 = getelementptr inbounds nuw %struct.AVFormatContext, ptr %14, i32 0, i32 4
  %16 = load ptr, ptr %15, align 8, !tbaa !93
  store ptr %16, ptr %5, align 8, !tbaa !94
  call void @llvm.lifetime.start.p0(i64 8, ptr %6) #10
  %17 = load ptr, ptr %4, align 8, !tbaa !31
  %18 = getelementptr inbounds nuw %struct.ogg, ptr %17, i32 0, i32 5
  %19 = load ptr, ptr %18, align 8, !tbaa !144
  store ptr %19, ptr %6, align 8, !tbaa !146
  call void @llvm.lifetime.start.p0(i64 4, ptr %7) #10
  call void @llvm.lifetime.start.p0(i64 4, ptr %8) #10
  %20 = load ptr, ptr %6, align 8, !tbaa !146
  %21 = icmp ne ptr %20, null
  br i1 %21, label %23, label %22

22:                                               ; preds = %1
  store i32 0, ptr %2, align 4
  store i32 1, ptr %9, align 4
  br label %111

23:                                               ; preds = %1
  %24 = load ptr, ptr %6, align 8, !tbaa !146
  %25 = getelementptr inbounds nuw %struct.ogg_state, ptr %24, i32 0, i32 2
  %26 = load ptr, ptr %25, align 8, !tbaa !150
  %27 = load ptr, ptr %4, align 8, !tbaa !31
  %28 = getelementptr inbounds nuw %struct.ogg, ptr %27, i32 0, i32 5
  store ptr %26, ptr %28, align 8, !tbaa !144
  store i32 0, ptr %7, align 4, !tbaa !37
  br label %29

29:                                               ; preds = %64, %23
  %30 = load i32, ptr %7, align 4, !tbaa !37
  %31 = load ptr, ptr %4, align 8, !tbaa !31
  %32 = getelementptr inbounds nuw %struct.ogg, ptr %31, i32 0, i32 1
  %33 = load i32, ptr %32, align 8, !tbaa !41
  %34 = icmp slt i32 %30, %33
  br i1 %34, label %35, label %67

35:                                               ; preds = %29
  call void @llvm.lifetime.start.p0(i64 8, ptr %10) #10
  %36 = load ptr, ptr %4, align 8, !tbaa !31
  %37 = getelementptr inbounds nuw %struct.ogg, ptr %36, i32 0, i32 0
  %38 = load ptr, ptr %37, align 8, !tbaa !42
  %39 = load i32, ptr %7, align 4, !tbaa !37
  %40 = sext i32 %39 to i64
  %41 = getelementptr inbounds %struct.ogg_stream, ptr %38, i64 %40
  store ptr %41, ptr %10, align 8, !tbaa !43
  %42 = load ptr, ptr %10, align 8, !tbaa !43
  %43 = getelementptr inbounds nuw %struct.ogg_stream, ptr %42, i32 0, i32 0
  call void @av_freep(ptr noundef %43)
  %44 = load ptr, ptr %10, align 8, !tbaa !43
  %45 = getelementptr inbounds nuw %struct.ogg_stream, ptr %44, i32 0, i32 28
  call void @av_freep(ptr noundef %45)
  %46 = load i32, ptr %7, align 4, !tbaa !37
  %47 = load ptr, ptr %6, align 8, !tbaa !146
  %48 = getelementptr inbounds nuw %struct.ogg_state, ptr %47, i32 0, i32 3
  %49 = load i32, ptr %48, align 8, !tbaa !151
  %50 = icmp sge i32 %46, %49
  br i1 %50, label %60, label %51

51:                                               ; preds = %35
  %52 = load ptr, ptr %6, align 8, !tbaa !146
  %53 = getelementptr inbounds nuw %struct.ogg_state, ptr %52, i32 0, i32 4
  %54 = load i32, ptr %7, align 4, !tbaa !37
  %55 = sext i32 %54 to i64
  %56 = getelementptr inbounds [1 x %struct.ogg_stream], ptr %53, i64 0, i64 %55
  %57 = getelementptr inbounds nuw %struct.ogg_stream, ptr %56, i32 0, i32 30
  %58 = load ptr, ptr %57, align 8, !tbaa !153
  %59 = icmp ne ptr %58, null
  br i1 %59, label %63, label %60

60:                                               ; preds = %51, %35
  %61 = load ptr, ptr %3, align 8, !tbaa !14
  %62 = load i32, ptr %7, align 4, !tbaa !37
  call void @free_stream(ptr noundef %61, i32 noundef %62)
  br label %63

63:                                               ; preds = %60, %51
  call void @llvm.lifetime.end.p0(i64 8, ptr %10) #10
  br label %64

64:                                               ; preds = %63
  %65 = load i32, ptr %7, align 4, !tbaa !37
  %66 = add nsw i32 %65, 1
  store i32 %66, ptr %7, align 4, !tbaa !37
  br label %29, !llvm.loop !154

67:                                               ; preds = %29
  %68 = load ptr, ptr %5, align 8, !tbaa !94
  %69 = load ptr, ptr %6, align 8, !tbaa !146
  %70 = getelementptr inbounds nuw %struct.ogg_state, ptr %69, i32 0, i32 0
  %71 = load i64, ptr %70, align 8, !tbaa !147
  %72 = call i64 @avio_seek(ptr noundef %68, i64 noundef %71, i32 noundef 0)
  %73 = load ptr, ptr %4, align 8, !tbaa !31
  %74 = getelementptr inbounds nuw %struct.ogg, ptr %73, i32 0, i32 4
  store i64 -1, ptr %74, align 8, !tbaa !126
  %75 = load ptr, ptr %6, align 8, !tbaa !146
  %76 = getelementptr inbounds nuw %struct.ogg_state, ptr %75, i32 0, i32 1
  %77 = load i32, ptr %76, align 8, !tbaa !149
  %78 = load ptr, ptr %4, align 8, !tbaa !31
  %79 = getelementptr inbounds nuw %struct.ogg, ptr %78, i32 0, i32 3
  store i32 %77, ptr %79, align 8, !tbaa !33
  %80 = load ptr, ptr %6, align 8, !tbaa !146
  %81 = getelementptr inbounds nuw %struct.ogg_state, ptr %80, i32 0, i32 3
  %82 = load i32, ptr %81, align 8, !tbaa !151
  %83 = load ptr, ptr %4, align 8, !tbaa !31
  %84 = getelementptr inbounds nuw %struct.ogg, ptr %83, i32 0, i32 1
  store i32 %82, ptr %84, align 8, !tbaa !41
  %85 = load ptr, ptr %4, align 8, !tbaa !31
  %86 = getelementptr inbounds nuw %struct.ogg, ptr %85, i32 0, i32 0
  %87 = load ptr, ptr %4, align 8, !tbaa !31
  %88 = getelementptr inbounds nuw %struct.ogg, ptr %87, i32 0, i32 1
  %89 = load i32, ptr %88, align 8, !tbaa !41
  %90 = sext i32 %89 to i64
  %91 = call i32 @av_reallocp_array(ptr noundef %86, i64 noundef %90, i64 noundef 432)
  store i32 %91, ptr %8, align 4, !tbaa !37
  %92 = icmp slt i32 %91, 0
  br i1 %92, label %93, label %97

93:                                               ; preds = %67
  %94 = load ptr, ptr %4, align 8, !tbaa !31
  %95 = getelementptr inbounds nuw %struct.ogg, ptr %94, i32 0, i32 1
  store i32 0, ptr %95, align 8, !tbaa !41
  %96 = load i32, ptr %8, align 4, !tbaa !37
  store i32 %96, ptr %2, align 4
  store i32 1, ptr %9, align 4
  br label %111

97:                                               ; preds = %67
  %98 = load ptr, ptr %4, align 8, !tbaa !31
  %99 = getelementptr inbounds nuw %struct.ogg, ptr %98, i32 0, i32 0
  %100 = load ptr, ptr %99, align 8, !tbaa !42
  %101 = load ptr, ptr %6, align 8, !tbaa !146
  %102 = getelementptr inbounds nuw %struct.ogg_state, ptr %101, i32 0, i32 4
  %103 = getelementptr inbounds [1 x %struct.ogg_stream], ptr %102, i64 0, i64 0
  %104 = load ptr, ptr %6, align 8, !tbaa !146
  %105 = getelementptr inbounds nuw %struct.ogg_state, ptr %104, i32 0, i32 3
  %106 = load i32, ptr %105, align 8, !tbaa !151
  %107 = sext i32 %106 to i64
  %108 = mul i64 %107, 432
  call void @llvm.memcpy.p0.p0.i64(ptr align 8 %100, ptr align 8 %103, i64 %108, i1 false)
  br label %109

109:                                              ; preds = %97
  %110 = load ptr, ptr %6, align 8, !tbaa !146
  call void @av_free(ptr noundef %110)
  store i32 0, ptr %2, align 4
  store i32 1, ptr %9, align 4
  br label %111

111:                                              ; preds = %109, %93, %22
  call void @llvm.lifetime.end.p0(i64 4, ptr %8) #10
  call void @llvm.lifetime.end.p0(i64 4, ptr %7) #10
  call void @llvm.lifetime.end.p0(i64 8, ptr %6) #10
  call void @llvm.lifetime.end.p0(i64 8, ptr %5) #10
  call void @llvm.lifetime.end.p0(i64 8, ptr %4) #10
  %112 = load i32, ptr %2, align 4
  ret i32 %112
}