; Function Attrs: nounwind uwtable
define internal fastcc void @ogg_restore(ptr noundef %0) unnamed_addr #1 {
  %2 = getelementptr inbounds nuw i8, ptr %0, i64 24
  %3 = load ptr, ptr %2, align 8, !tbaa !12
  %4 = getelementptr inbounds nuw i8, ptr %0, i64 32
  %5 = load ptr, ptr %4, align 8, !tbaa !58
  %6 = getelementptr inbounds nuw i8, ptr %3, i64 32
  %7 = load ptr, ptr %6, align 8, !tbaa !129
  %.not = icmp eq ptr %7, null
  br i1 %.not, label %60, label %8

8:                                                ; preds = %1
  %9 = getelementptr inbounds nuw i8, ptr %7, i64 16
  %10 = load ptr, ptr %9, align 8, !tbaa !134
  store ptr %10, ptr %6, align 8, !tbaa !129
  %11 = getelementptr inbounds nuw i8, ptr %3, i64 8
  %12 = load i32, ptr %11, align 8, !tbaa !34
  %13 = icmp sgt i32 %12, 0
  br i1 %13, label %.lr.ph, label %._crit_edge

.lr.ph:                                           ; preds = %8
  %14 = getelementptr inbounds nuw i8, ptr %7, i64 24
  %15 = getelementptr i8, ptr %7, i64 456
  br label %16

16:                                               ; preds = %.lr.ph, %38
  %indvars.iv = phi i64 [ 0, %.lr.ph ], [ %indvars.iv.next, %38 ]
  %17 = load ptr, ptr %3, align 8, !tbaa !35
  %18 = getelementptr inbounds nuw %struct.ogg_stream, ptr %17, i64 %indvars.iv
  tail call void @av_freep(ptr noundef %18) #9
  %19 = getelementptr inbounds nuw i8, ptr %18, i64 408
  tail call void @av_freep(ptr noundef nonnull %19) #9
  %20 = load i32, ptr %14, align 8, !tbaa !135
  %21 = sext i32 %20 to i64
  %.not37 = icmp slt i64 %indvars.iv, %21
  br i1 %.not37, label %22, label %25

22:                                               ; preds = %16
  %.idx = mul nuw nsw i64 %indvars.iv, 432
  %23 = getelementptr i8, ptr %15, i64 %.idx
  %24 = load ptr, ptr %23, align 8, !tbaa !137
  %.not38 = icmp eq ptr %24, null
  br i1 %.not38, label %25, label %38

25:                                               ; preds = %22, %16
  %26 = load ptr, ptr %2, align 8, !tbaa !12
  %27 = load ptr, ptr %26, align 8, !tbaa !35
  %28 = getelementptr inbounds nuw %struct.ogg_stream, ptr %27, i64 %indvars.iv
  tail call void @av_freep(ptr noundef %28) #9
  %29 = getelementptr inbounds nuw i8, ptr %28, i64 96
  %30 = load ptr, ptr %29, align 8, !tbaa !39
  %.not.i = icmp eq ptr %30, null
  br i1 %.not.i, label %free_stream.exit, label %31

31:                                               ; preds = %25
  %32 = getelementptr inbounds nuw i8, ptr %30, i64 56
  %33 = load ptr, ptr %32, align 8, !tbaa !107
  %.not11.i = icmp eq ptr %33, null
  br i1 %.not11.i, label %free_stream.exit, label %34

34:                                               ; preds = %31
  %35 = trunc nuw nsw i64 %indvars.iv to i32
  tail call void %33(ptr noundef nonnull %0, i32 noundef %35) #9
  br label %free_stream.exit

free_stream.exit:                                 ; preds = %25, %31, %34
  %36 = getelementptr inbounds nuw i8, ptr %28, i64 424
  tail call void @av_freep(ptr noundef nonnull %36) #9
  %37 = getelementptr inbounds nuw i8, ptr %28, i64 408
  tail call void @av_freep(ptr noundef nonnull %37) #9
  br label %38

38:                                               ; preds = %free_stream.exit, %22
  %indvars.iv.next = add nuw nsw i64 %indvars.iv, 1
  %39 = load i32, ptr %11, align 8, !tbaa !34
  %40 = sext i32 %39 to i64
  %41 = icmp slt i64 %indvars.iv.next, %40
  br i1 %41, label %16, label %._crit_edge, !llvm.loop !138

._crit_edge:                                      ; preds = %38, %8
  %42 = load i64, ptr %7, align 8, !tbaa !131
  %43 = tail call i64 @avio_seek(ptr noundef %5, i64 noundef %42, i32 noundef 0) #9
  %44 = getelementptr inbounds nuw i8, ptr %3, i64 24
  store i64 -1, ptr %44, align 8, !tbaa !62
  %45 = getelementptr inbounds nuw i8, ptr %7, i64 8
  %46 = load i32, ptr %45, align 8, !tbaa !133
  %47 = getelementptr inbounds nuw i8, ptr %3, i64 16
  store i32 %46, ptr %47, align 8, !tbaa !27
  %48 = getelementptr inbounds nuw i8, ptr %7, i64 24
  %49 = load i32, ptr %48, align 8, !tbaa !135
  store i32 %49, ptr %11, align 8, !tbaa !34
  %50 = sext i32 %49 to i64
  %51 = tail call i32 @av_reallocp_array(ptr noundef nonnull %3, i64 noundef %50, i64 noundef 432) #9
  %52 = icmp slt i32 %51, 0
  br i1 %52, label %53, label %54

53:                                               ; preds = %._crit_edge
  store i32 0, ptr %11, align 8, !tbaa !34
  br label %60

54:                                               ; preds = %._crit_edge
  %55 = load ptr, ptr %3, align 8, !tbaa !35
  %56 = getelementptr inbounds nuw i8, ptr %7, i64 32
  %57 = load i32, ptr %48, align 8, !tbaa !135
  %58 = sext i32 %57 to i64
  %59 = mul nsw i64 %58, 432
  tail call void @llvm.memcpy.p0.p0.i64(ptr align 8 %55, ptr nonnull align 8 %56, i64 %59, i1 false)
  tail call void @av_free(ptr noundef nonnull %7) #9
  br label %60

60:                                               ; preds = %1, %54, %53
  ret void
}